; Function Attrs: nounwind uwtable
define dso_local void @pa_detach_all_error_mq() local_unnamed_addr #0 {
  %1 = load ptr, ptr @ParallelApplyWorkerPool, align 8
  %2 = getelementptr inbounds nuw i8, ptr %1, i64 4
  %.not = icmp eq ptr %1, null
  br i1 %.not, label %._crit_edge, label %.lr.ph

.lr.ph:                                           ; preds = %0
  %3 = getelementptr inbounds nuw i8, ptr %1, i64 16
  %4 = load i32, ptr %2, align 4
  %5 = icmp sgt i32 %4, 0
  br i1 %5, label %.lr.ph17, label %._crit_edge

._crit_edge:                                      ; preds = %13, %.lr.ph, %0
  ret void

.lr.ph17:                                         ; preds = %.lr.ph, %13
  %6 = phi i32 [ %14, %13 ], [ %4, %.lr.ph ]
  %indvars.iv = phi i64 [ %indvars.iv.next, %13 ], [ 0, %.lr.ph ]
  %7 = load ptr, ptr %3, align 8
  %8 = getelementptr inbounds nuw %union.ListCell, ptr %7, i64 %indvars.iv
  %9 = load ptr, ptr %8, align 8
  %10 = getelementptr inbounds nuw i8, ptr %9, i64 8
  %11 = load ptr, ptr %10, align 8
  %.not11 = icmp eq ptr %11, null
  br i1 %.not11, label %13, label %12

12:                                               ; preds = %.lr.ph17
  tail call void @shm_mq_detach(ptr noundef nonnull %11) #10
  store ptr null, ptr %10, align 8
  %.pre = load i32, ptr %2, align 4
  br label %13

13:                                               ; preds = %12, %.lr.ph17
  %14 = phi i32 [ %.pre, %12 ], [ %6, %.lr.ph17 ]
  %indvars.iv.next = add nuw nsw i64 %indvars.iv, 1
  %15 = sext i32 %14 to i64
  %16 = icmp slt i64 %indvars.iv.next, %15
  br i1 %16, label %.lr.ph17, label %._crit_edge
}